target datalayout = "e-m:e-p270:32:32-p271:32:32-p272:64:64-i64:64-i128:128-f80:128-n8:16:32:64-S128"
target triple = "x86_64-pc-linux-gnu"

%struct._generic_SUNAdaptController = type { ptr, ptr, ptr }
%struct._mriStepControlContent = type { ptr, ptr, ptr }
%struct.ARKodeMRIStepMemRec = type { ptr, ptr, i32, i32, i32, i32, i32, ptr, ptr, i32, i32, i32, ptr, i32, i32, i32, i32, i32, ptr, ptr, ptr, ptr, ptr, ptr, ptr, i32, ptr, i32, ptr, double, double, double, double, i32, double, double, double, double, double, double, i32, i64, i32, i32, i32, ptr, ptr, ptr, ptr, ptr, ptr, ptr, ptr, ptr, double, double, double, i64, i64, i64, i64, i64, i64, i32, i32, i32, double, double, ptr, i32, ptr, ptr }

; Function Attrs: nounwind uwtable
define i32 @SUNAdaptController_EstimateStep_MRIStep(ptr noundef %0, double noundef %1, i32 noundef %2, double noundef %3, ptr noundef %4) #0 {
  %6 = alloca i32, align 4
  %7 = alloca ptr, align 8
  %8 = alloca double, align 8
  %9 = alloca i32, align 4
  %10 = alloca double, align 8
  %11 = alloca ptr, align 8
  %12 = alloca ptr, align 8
  %13 = alloca ptr, align 8
  %14 = alloca i32, align 4
  store ptr %0, ptr %7, align 8, !tbaa !8
  store double %1, ptr %8, align 8, !tbaa !33
  store i32 %2, ptr %9, align 4, !tbaa !10
  store double %3, ptr %10, align 8, !tbaa !33
  store ptr %4, ptr %11, align 8, !tbaa !35
  call void @llvm.lifetime.start.p0(i64 8, ptr %12) #4
  %15 = load ptr, ptr %7, align 8, !tbaa !8
  %16 = getelementptr inbounds nuw %struct._generic_SUNAdaptController, ptr %15, i32 0, i32 0
  %17 = load ptr, ptr %16, align 8, !tbaa !32
  %18 = getelementptr inbounds nuw %struct._mriStepControlContent, ptr %17, i32 0, i32 0
  %19 = load ptr, ptr %18, align 8, !tbaa !26
  store ptr %19, ptr %12, align 8, !tbaa !3
  call void @llvm.lifetime.start.p0(i64 8, ptr %13) #4
  %20 = load ptr, ptr %7, align 8, !tbaa !8
  %21 = getelementptr inbounds nuw %struct._generic_SUNAdaptController, ptr %20, i32 0, i32 0
  %22 = load ptr, ptr %21, align 8, !tbaa !32
  %23 = getelementptr inbounds nuw %struct._mriStepControlContent, ptr %22, i32 0, i32 1
  %24 = load ptr, ptr %23, align 8, !tbaa !30
  store ptr %24, ptr %13, align 8, !tbaa !29
  %25 = load ptr, ptr %12, align 8, !tbaa !3
  %26 = icmp eq ptr %25, null
  br i1 %26, label %30, label %27

27:                                               ; preds = %5
  %28 = load ptr, ptr %13, align 8, !tbaa !29
  %29 = icmp eq ptr %28, null
  br i1 %29, label %30, label %31

30:                                               ; preds = %27, %5
  store i32 -9989, ptr %6, align 4
  store i32 1, ptr %14, align 4
  br label %50

31:                                               ; preds = %27
  %32 = load ptr, ptr %7, align 8, !tbaa !8
  %33 = getelementptr inbounds nuw %struct._generic_SUNAdaptController, ptr %32, i32 0, i32 0
  %34 = load ptr, ptr %33, align 8, !tbaa !32
  %35 = getelementptr inbounds nuw %struct._mriStepControlContent, ptr %34, i32 0, i32 2
  %36 = load ptr, ptr %35, align 8, !tbaa !31
  %37 = load double, ptr %8, align 8, !tbaa !33
  %38 = load ptr, ptr %13, align 8, !tbaa !29
  %39 = getelementptr inbounds nuw %struct.ARKodeMRIStepMemRec, ptr %38, i32 0, i32 54
  %40 = load double, ptr %39, align 8, !tbaa !37
  %41 = load i32, ptr %9, align 4, !tbaa !10
  %42 = load double, ptr %10, align 8, !tbaa !33
  %43 = load ptr, ptr %13, align 8, !tbaa !29
  %44 = getelementptr inbounds nuw %struct.ARKodeMRIStepMemRec, ptr %43, i32 0, i32 55
  %45 = load double, ptr %44, align 8, !tbaa !46
  %46 = load ptr, ptr %11, align 8, !tbaa !35
  %47 = load ptr, ptr %13, align 8, !tbaa !29
  %48 = getelementptr inbounds nuw %struct.ARKodeMRIStepMemRec, ptr %47, i32 0, i32 56
  %49 = call i32 @SUNAdaptController_EstimateStepTol(ptr noundef %36, double noundef %37, double noundef %40, i32 noundef %41, double noundef %42, double noundef %45, ptr noundef %46, ptr noundef %48)
  store i32 %49, ptr %6, align 4
  store i32 1, ptr %14, align 4
  br label %50

50:                                               ; preds = %31, %30
  call void @llvm.lifetime.end.p0(i64 8, ptr %13) #4
  call void @llvm.lifetime.end.p0(i64 8, ptr %12) #4
  %51 = load i32, ptr %6, align 4
  ret i32 %51
}