; Function Attrs: nounwind uwtable
define i32 @SUNAdaptController_EstimateStep_MRIStep(ptr noundef readonly captures(none) %0, double noundef %1, i32 noundef %2, double noundef %3, ptr noundef %4) #0 {
  %6 = load ptr, ptr %0, align 8, !tbaa !26
  %7 = load ptr, ptr %6, align 8, !tbaa !18
  %8 = getelementptr inbounds nuw i8, ptr %6, i64 8
  %9 = load ptr, ptr %8, align 8, !tbaa !24
  %10 = icmp eq ptr %7, null
  %11 = icmp eq ptr %9, null
  %or.cond = select i1 %10, i1 true, i1 %11
  br i1 %or.cond, label %21, label %12

12:                                               ; preds = %5
  %13 = getelementptr inbounds nuw i8, ptr %6, i64 16
  %14 = load ptr, ptr %13, align 8, !tbaa !25
  %15 = getelementptr inbounds nuw i8, ptr %9, i64 384
  %16 = load double, ptr %15, align 8, !tbaa !27
  %17 = getelementptr inbounds nuw i8, ptr %9, i64 392
  %18 = load double, ptr %17, align 8, !tbaa !39
  %19 = getelementptr inbounds nuw i8, ptr %9, i64 400
  %20 = tail call i32 @SUNAdaptController_EstimateStepTol(ptr noundef %14, double noundef %1, double noundef %16, i32 noundef %2, double noundef %3, double noundef %18, ptr noundef %4, ptr noundef nonnull %19) #4
  br label %21

21:                                               ; preds = %5, %12
  %.0 = phi i32 [ %20, %12 ], [ -9989, %5 ]
  ret i32 %.0
}